; Function Attrs: mustprogress uwtable
define noundef nonnull align 1 dereferenceable(1) ptr @_ZNK5boost9unit_test9ut_detail21entry_value_collectorlsENS0_13basic_cstringIKcEE(ptr noundef nonnull readnone returned align 1 dereferenceable(1) %0, ptr nocapture noundef readonly %1) local_unnamed_addr #4 align 2 {
  %3 = alloca %"class.boost::unit_test::basic_cstring", align 8
  %4 = load ptr, ptr @_ZN5boost9unit_test12_GLOBAL__N_113unit_test_logE, align 8, !tbaa !4
  %5 = load ptr, ptr %1, align 8, !tbaa !41
  store ptr %5, ptr %3, align 8, !tbaa !41
  %6 = getelementptr inbounds nuw i8, ptr %3, i64 8
  %7 = getelementptr inbounds nuw i8, ptr %1, i64 8
  %8 = load ptr, ptr %7, align 8, !tbaa !42
  store ptr %8, ptr %6, align 8, !tbaa !42
  %9 = call noundef nonnull align 8 dereferenceable(8) ptr @_ZN5boost9unit_test15unit_test_log_tlsENS0_13basic_cstringIKcEE(ptr noundef nonnull align 8 dereferenceable(8) %4, ptr noundef nonnull %3)
  ret ptr %0
}